target datalayout = "e-m:e-p270:32:32-p271:32:32-p272:64:64-i64:64-i128:128-f80:128-n8:16:32:64-S128"
target triple = "x86_64-pc-linux-gnu"

%struct.hidapi_backend = type { ptr, ptr, ptr, ptr, ptr, ptr, ptr, ptr, ptr, ptr, ptr, ptr, ptr, ptr, ptr }
%struct.SDL_hid_device_info = type { ptr, i16, i16, ptr, i16, ptr, ptr, i16, i16, i32, i32, i32, i32, i32, ptr }
%struct.SDL_hid_device = type { ptr, ptr, %struct.SDL_hid_device_info }

@.str.30 = private unnamed_addr constant [15 x i8] c"Invalid device\00", align 1

; Function Attrs: nounwind uwtable
define hidden i32 @SDL_hid_get_serial_number_string_REAL(ptr noundef %0, ptr noundef %1, i64 noundef %2) #0 {
  %4 = alloca i32, align 4
  %5 = alloca ptr, align 8
  %6 = alloca ptr, align 8
  %7 = alloca i64, align 8
  store ptr %0, ptr %5, align 8
  store ptr %1, ptr %6, align 8
  store i64 %2, ptr %7, align 8
  %8 = load ptr, ptr %5, align 8
  %9 = call zeroext i1 @SDL_ObjectValid(ptr noundef %8, i32 noundef 8)
  br i1 %9, label %12, label %10

10:                                               ; preds = %3
  %11 = call zeroext i1 (ptr, ...) @SDL_SetError_REAL(ptr noundef @.str.30)
  store i32 -1, ptr %4, align 4
  br label %24

12:                                               ; preds = %3
  %13 = load ptr, ptr %5, align 8
  %14 = getelementptr inbounds nuw %struct.SDL_hid_device, ptr %13, i32 0, i32 1
  %15 = load ptr, ptr %14, align 8
  %16 = getelementptr inbounds nuw %struct.hidapi_backend, ptr %15, i32 0, i32 10
  %17 = load ptr, ptr %16, align 8
  %18 = load ptr, ptr %5, align 8
  %19 = getelementptr inbounds nuw %struct.SDL_hid_device, ptr %18, i32 0, i32 0
  %20 = load ptr, ptr %19, align 8
  %21 = load ptr, ptr %6, align 8
  %22 = load i64, ptr %7, align 8
  %23 = call i32 %17(ptr noundef %20, ptr noundef %21, i64 noundef %22)
  store i32 %23, ptr %4, align 4
  br label %24

24:                                               ; preds = %12, %10
  %25 = load i32, ptr %4, align 4
  ret i32 %25
}